target datalayout = "e-m:e-p270:32:32-p271:32:32-p272:64:64-i64:64-i128:128-f80:128-n8:16:32:64-S128"
target triple = "x86_64-unknown-linux-gnu"

%"class.base::internal::JSONParser" = type <{ i32, [4 x i8], ptr, ptr, ptr, i32, i32, i32, i32, i32, i32, i32, [4 x i8] }>

; Function Attrs: mustprogress nounwind uwtable
define dso_local noundef ptr @_ZN4base8internal10JSONParser8NextCharEv(ptr noundef nonnull align 8 dereferenceable(60) %this) #0 align 2 {
entry:
  %this.addr = alloca ptr, align 8
  store ptr %this, ptr %this.addr, align 8
  %this1 = load ptr, ptr %this.addr, align 8
  %index_ = getelementptr inbounds %"class.base::internal::JSONParser", ptr %this1, i32 0, i32 5
  %0 = load i32, ptr %index_, align 8
  %inc = add nsw i32 %0, 1
  store i32 %inc, ptr %index_, align 8
  %pos_ = getelementptr inbounds %"class.base::internal::JSONParser", ptr %this1, i32 0, i32 3
  %1 = load ptr, ptr %pos_, align 8
  %incdec.ptr = getelementptr inbounds i8, ptr %1, i32 1
  store ptr %incdec.ptr, ptr %pos_, align 8
  %pos_2 = getelementptr inbounds %"class.base::internal::JSONParser", ptr %this1, i32 0, i32 3
  %2 = load ptr, ptr %pos_2, align 8
  ret ptr %2
}

; Function Attrs: mustprogress nounwind uwtable
define linkonce_odr dso_local noundef zeroext i1 @_ZN4base12IsAsciiDigitIcEEbT_(i8 noundef signext %c) #0 comdat {
entry:
  %c.addr = alloca i8, align 1
  store i8 %c, ptr %c.addr, align 1
  %0 = load i8, ptr %c.addr, align 1
  %conv = sext i8 %0 to i32
  %cmp = icmp sge i32 %conv, 48
  br i1 %cmp, label %land.rhs, label %land.end

land.rhs:                                         ; preds = %entry
  %1 = load i8, ptr %c.addr, align 1
  %conv1 = sext i8 %1 to i32
  %cmp2 = icmp sle i32 %conv1, 57
  br label %land.end

land.end:                                         ; preds = %land.rhs, %entry
  %2 = phi i1 [ false, %entry ], [ %cmp2, %land.rhs ]
  ret i1 %2
}

; Function Attrs: mustprogress nounwind uwtable
define linkonce_odr dso_local noundef zeroext i1 @_ZN4base8internal10JSONParser10CanConsumeEi(ptr noundef nonnull align 8 dereferenceable(60) %this, i32 noundef %length) #0 comdat align 2 {
entry:
  %this.addr = alloca ptr, align 8
  %length.addr = alloca i32, align 4
  store ptr %this, ptr %this.addr, align 8
  store i32 %length, ptr %length.addr, align 4
  %this1 = load ptr, ptr %this.addr, align 8
  %pos_ = getelementptr inbounds %"class.base::internal::JSONParser", ptr %this1, i32 0, i32 3
  %0 = load ptr, ptr %pos_, align 8
  %1 = load i32, ptr %length.addr, align 4
  %idx.ext = sext i32 %1 to i64
  %add.ptr = getelementptr inbounds i8, ptr %0, i64 %idx.ext
  %end_pos_ = getelementptr inbounds %"class.base::internal::JSONParser", ptr %this1, i32 0, i32 4
  %2 = load ptr, ptr %end_pos_, align 8
  %cmp = icmp ule ptr %add.ptr, %2
  ret i1 %cmp
}

; Function Attrs: mustprogress uwtable
define dso_local noundef zeroext i1 @_ZN4base8internal10JSONParser7ReadIntEb(ptr noundef nonnull align 8 dereferenceable(60) %this, i1 noundef zeroext %allow_leading_zeros) #1 align 2 {
entry:
  %retval = alloca i1, align 1
  %this.addr = alloca ptr, align 8
  %allow_leading_zeros.addr = alloca i8, align 1
  %first = alloca i8, align 1
  %len = alloca i32, align 4
  %c = alloca i8, align 1
  store ptr %this, ptr %this.addr, align 8
  %frombool = zext i1 %allow_leading_zeros to i8
  store i8 %frombool, ptr %allow_leading_zeros.addr, align 1
  %this1 = load ptr, ptr %this.addr, align 8
  %pos_ = getelementptr inbounds %"class.base::internal::JSONParser", ptr %this1, i32 0, i32 3
  %0 = load ptr, ptr %pos_, align 8
  %1 = load i8, ptr %0, align 1
  store i8 %1, ptr %first, align 1
  store i32 0, ptr %len, align 4
  %2 = load i8, ptr %first, align 1
  store i8 %2, ptr %c, align 1
  br label %while.cond

while.cond:                                       ; preds = %while.body, %entry
  %call = call noundef zeroext i1 @_ZN4base8internal10JSONParser10CanConsumeEi(ptr noundef nonnull align 8 dereferenceable(60) %this1, i32 noundef 1)
  br i1 %call, label %land.rhs, label %land.end

land.rhs:                                         ; preds = %while.cond
  %3 = load i8, ptr %c, align 1
  %call2 = call noundef zeroext i1 @_ZN4base12IsAsciiDigitIcEEbT_(i8 noundef signext %3)
  br label %land.end

land.end:                                         ; preds = %land.rhs, %while.cond
  %4 = phi i1 [ false, %while.cond ], [ %call2, %land.rhs ]
  br i1 %4, label %while.body, label %while.end

while.body:                                       ; preds = %land.end
  %call3 = call noundef ptr @_ZN4base8internal10JSONParser8NextCharEv(ptr noundef nonnull align 8 dereferenceable(60) %this1)
  %5 = load i8, ptr %call3, align 1
  store i8 %5, ptr %c, align 1
  %6 = load i32, ptr %len, align 4
  %inc = add nsw i32 %6, 1
  store i32 %inc, ptr %len, align 4
  br label %while.cond, !llvm.loop !12

while.end:                                        ; preds = %land.end
  %7 = load i32, ptr %len, align 4
  %cmp = icmp eq i32 %7, 0
  br i1 %cmp, label %if.then, label %if.end

if.then:                                          ; preds = %while.end
  store i1 false, ptr %retval, align 1
  br label %return

if.end:                                           ; preds = %while.end
  %8 = load i8, ptr %allow_leading_zeros.addr, align 1
  %tobool = trunc i8 %8 to i1
  br i1 %tobool, label %if.end8, label %land.lhs.true

land.lhs.true:                                    ; preds = %if.end
  %9 = load i32, ptr %len, align 4
  %cmp4 = icmp sgt i32 %9, 1
  br i1 %cmp4, label %land.lhs.true5, label %if.end8

land.lhs.true5:                                   ; preds = %land.lhs.true
  %10 = load i8, ptr %first, align 1
  %conv = sext i8 %10 to i32
  %cmp6 = icmp eq i32 %conv, 48
  br i1 %cmp6, label %if.then7, label %if.end8

if.then7:                                         ; preds = %land.lhs.true5
  store i1 false, ptr %retval, align 1
  br label %return

if.end8:                                          ; preds = %land.lhs.true5, %land.lhs.true, %if.end
  store i1 true, ptr %retval, align 1
  br label %return

return:                                           ; preds = %if.end8, %if.then7, %if.then
  %11 = load i1, ptr %retval, align 1
  ret i1 %11
}