; Function Attrs: mustprogress nofree norecurse nosync nounwind memory(read, argmem: readwrite, inaccessiblemem: none) uwtable
define dso_local noundef zeroext i1 @_ZN4base8internal10JSONParser7ReadIntEb(ptr nocapture noundef nonnull align 8 dereferenceable(60) %this, i1 noundef zeroext %allow_leading_zeros) local_unnamed_addr #7 align 2 {
entry:
  %pos_ = getelementptr inbounds i8, ptr %this, i64 16
  %0 = load ptr, ptr %pos_, align 8
  %1 = load i8, ptr %0, align 1
  %end_pos_.i = getelementptr inbounds i8, ptr %this, i64 24
  %2 = load ptr, ptr %end_pos_.i, align 8
  %add.ptr.i9 = getelementptr inbounds i8, ptr %0, i64 1
  %cmp.i10 = icmp ule ptr %add.ptr.i9, %2
  %3 = add i8 %1, -48
  %4 = icmp ult i8 %3, 10
  %or.cond711 = select i1 %cmp.i10, i1 %4, i1 false
  br i1 %or.cond711, label %while.body.lr.ph, label %return

while.body.lr.ph:                                 ; preds = %entry
  %index_.i = getelementptr inbounds i8, ptr %this, i64 32
  %index_.i.promoted = load i32, ptr %index_.i, align 8
  br label %while.body

while.body:                                       ; preds = %while.body.lr.ph, %while.body
  %inc.i14 = phi i32 [ %index_.i.promoted, %while.body.lr.ph ], [ %inc.i, %while.body ]
  %add.ptr.i13 = phi ptr [ %add.ptr.i9, %while.body.lr.ph ], [ %add.ptr.i, %while.body ]
  %len.012 = phi i32 [ 0, %while.body.lr.ph ], [ %inc, %while.body ]
  %inc.i = add nsw i32 %inc.i14, 1
  store i32 %inc.i, ptr %index_.i, align 8
  store ptr %add.ptr.i13, ptr %pos_, align 8
  %5 = load i8, ptr %add.ptr.i13, align 1
  %inc = add nuw nsw i32 %len.012, 1
  %add.ptr.i = getelementptr inbounds i8, ptr %add.ptr.i13, i64 1
  %cmp.i = icmp ule ptr %add.ptr.i, %2
  %6 = add i8 %5, -48
  %7 = icmp ult i8 %6, 10
  %or.cond7 = select i1 %cmp.i, i1 %7, i1 false
  br i1 %or.cond7, label %while.body, label %if.end, !llvm.loop !35

if.end:                                           ; preds = %while.body
  %cmp4 = icmp eq i32 %len.012, 0
  %or.cond.not = or i1 %cmp4, %allow_leading_zeros
  %cmp6 = icmp ne i8 %1, 48
  %or.cond1.not = select i1 %or.cond.not, i1 true, i1 %cmp6
  br label %return

return:                                           ; preds = %entry, %if.end
  %retval.0 = phi i1 [ %or.cond1.not, %if.end ], [ false, %entry ]
  ret i1 %retval.0
}